; Function Attrs: nounwind uwtable
define hidden void @NCONF_free(ptr noundef captures(address_is_null) %0) local_unnamed_addr #0 {
  %2 = icmp eq ptr %0, null
  br i1 %2, label %8, label %3

3:                                                ; preds = %1
  %4 = load ptr, ptr %0, align 8, !tbaa !6
  %5 = icmp eq ptr %4, null
  br i1 %5, label %8, label %6

6:                                                ; preds = %3
  tail call void @lh_doall(ptr noundef nonnull %4, ptr noundef nonnull @value_free) #12
  %7 = load ptr, ptr %0, align 8, !tbaa !6
  tail call void @lh_free(ptr noundef %7) #12
  tail call void @free(ptr noundef nonnull %0) #12
  br label %8

8:                                                ; preds = %1, %3, %6
  ret void
}